; Function Attrs: mustprogress nounwind uwtable
define hidden void @_ZN4llvm16DAGTypeLegalizer21ExpandFloatRes_FLDEXPEPNS_6SDNodeERNS_7SDValueES4_(ptr noundef nonnull align 8 dereferenceable(2512) %0, ptr noundef %1, ptr noundef nonnull align 8 dereferenceable(12) %2, ptr noundef nonnull align 8 dereferenceable(12) %3) local_unnamed_addr #0 align 2 {
  %5 = getelementptr inbounds nuw i8, ptr %1, i64 48
  %6 = load ptr, ptr %5, align 8
  %.sroa.0.0.copyload.i = load i16, ptr %6, align 8
  %.sroa.21.0..sroa_idx.i = getelementptr inbounds i8, ptr %6, i64 8
  %.sroa.21.0.copyload.i = load ptr, ptr %.sroa.21.0..sroa_idx.i, align 8
  %7 = tail call noundef i32 @_ZN4llvm5RTLIB8getLDEXPENS_3EVTE(i16 %.sroa.0.0.copyload.i, ptr %.sroa.21.0.copyload.i) #15
  tail call void @_ZN4llvm16DAGTypeLegalizer21ExpandFloatRes_BinaryEPNS_6SDNodeENS_5RTLIB7LibcallERNS_7SDValueES6_(ptr noundef nonnull align 8 dereferenceable(2512) %0, ptr noundef nonnull %1, i32 noundef %7, ptr noundef nonnull align 8 dereferenceable(12) %2, ptr noundef nonnull align 8 dereferenceable(12) %3)
  ret void
}